target datalayout = "e-m:e-p270:32:32-p271:32:32-p272:64:64-i64:64-i128:128-f80:128-n8:16:32:64-S128"
target triple = "x86_64-pc-linux-gnu"

%union.SourceSpan = type { i64 }
%struct.GenContext_ = type { i8, ptr, ptr, ptr, ptr, ptr, ptr, ptr, ptr, ptr, ptr, ptr, ptr, ptr, ptr, ptr, ptr, ptr, ptr, ptr, ptr, ptr, ptr, ptr, ptr, ptr, ptr, ptr, ptr, ptr, ptr, ptr, ptr, %struct.anon.85, i32, i32, %struct.DebugContext, ptr, ptr, ptr, %struct.BEValue, i8, %union.SourceSpan, ptr, ptr, ptr, ptr }
%struct.anon.85 = type { ptr, ptr, ptr }
%struct.DebugContext = type { i16, ptr, ptr, %struct.DebugFile_, ptr, ptr, ptr, ptr }
%struct.DebugFile_ = type { i16, ptr }
%struct.BEValue = type { i8, i32, ptr, ptr, ptr }
%struct.Type_ = type { i32, ptr, ptr, ptr, %union.anon.97, ptr, ptr, %union.anon.99 }
%union.anon.97 = type { ptr }
%union.anon.99 = type { %struct.TypeFunction }
%struct.TypeFunction = type { ptr, ptr, ptr }
%struct.Decl_ = type { ptr, ptr, %union.SourceSpan, i64, %union.anon, i32, %union.anon.0, i64, ptr, ptr, ptr, %union.anon.1 }
%union.anon = type { ptr }
%union.anon.0 = type { i16 }
%union.anon.1 = type { %struct.FuncDecl }
%struct.FuncDecl = type { i32, [4 x i8], %struct.Signature_, i32, i32, %union.anon.8 }
%struct.Signature_ = type <{ %struct.CalleeAttributes, i16, i8, i32, i32, [4 x i8], ptr }>
%struct.CalleeAttributes = type { i8 }
%union.anon.8 = type { %struct.anon.9 }
%struct.anon.9 = type { i16, %union.anon.10 }
%union.anon.10 = type { ptr }
%struct.anon.2 = type { ptr, ptr, %union.anon.3 }
%union.anon.3 = type { %struct.BitStructDecl }
%struct.BitStructDecl = type { ptr, ptr, i8 }
%struct.TypeArray = type { ptr, i32 }
%struct.VHeader_ = type { i32, i32, [0 x i8] }
%struct.StructDecl = type { i32, ptr, i32, i16 }

; Function Attrs: nounwind uwtable
define dso_local ptr @llvm_get_next_param(ptr noundef %0, ptr noundef %1) #0 {
  %3 = alloca ptr, align 8
  %4 = alloca ptr, align 8
  store ptr %0, ptr %3, align 8
  store ptr %1, ptr %4, align 8
  %5 = load ptr, ptr %3, align 8
  %6 = getelementptr inbounds %struct.GenContext_, ptr %5, i32 0, i32 6
  %7 = load ptr, ptr %6, align 8
  %8 = load ptr, ptr %4, align 8
  %9 = load i32, ptr %8, align 4
  %10 = add i32 %9, 1
  store i32 %10, ptr %8, align 4
  %11 = call ptr @LLVMGetParam(ptr noundef %7, i32 noundef %9)
  ret ptr %11
}

; Function Attrs: nounwind uwtable
define internal void @llvm_expand_from_args(ptr noundef %0, ptr noundef %1, ptr noundef %2, ptr noundef %3, i32 noundef %4) #0 {
  %6 = alloca i32, align 4
  %7 = alloca ptr, align 8
  %8 = alloca ptr, align 8
  %9 = alloca ptr, align 8
  %10 = alloca ptr, align 8
  %11 = alloca ptr, align 8
  %12 = alloca ptr, align 8
  %13 = alloca i32, align 4
  %14 = alloca ptr, align 8
  %15 = alloca i32, align 4
  %16 = alloca i32, align 4
  %17 = alloca ptr, align 8
  %18 = alloca ptr, align 8
  %19 = alloca ptr, align 8
  %20 = alloca i32, align 4
  %21 = alloca i32, align 4
  %22 = alloca i32, align 4
  %23 = alloca ptr, align 8
  %24 = alloca ptr, align 8
  store ptr %0, ptr %9, align 8
  store ptr %1, ptr %10, align 8
  store ptr %2, ptr %11, align 8
  store ptr %3, ptr %12, align 8
  store i32 %4, ptr %13, align 4
  %25 = load ptr, ptr %10, align 8
  %26 = getelementptr inbounds %struct.Type_, ptr %25, i32 0, i32 0
  %27 = load i32, ptr %26, align 8
  switch i32 %27, label %114 [
    i32 33, label %28
    i32 26, label %58
    i32 27, label %106
  ]

28:                                               ; preds = %5
  %29 = load ptr, ptr %9, align 8
  %30 = load ptr, ptr %10, align 8
  %31 = call ptr @llvm_get_type(ptr noundef %29, ptr noundef %30)
  store ptr %31, ptr %14, align 8
  store i32 0, ptr %15, align 4
  br label %32

32:                                               ; preds = %54, %28
  %33 = load i32, ptr %15, align 4
  %34 = load ptr, ptr %10, align 8
  %35 = getelementptr inbounds %struct.Type_, ptr %34, i32 0, i32 7
  %36 = getelementptr inbounds %struct.TypeArray, ptr %35, i32 0, i32 1
  %37 = load i32, ptr %36, align 8
  %38 = icmp ult i32 %33, %37
  br i1 %38, label %39, label %57

39:                                               ; preds = %32
  %40 = load ptr, ptr %9, align 8
  %41 = load ptr, ptr %11, align 8
  %42 = load ptr, ptr %14, align 8
  %43 = load i32, ptr %15, align 4
  %44 = load i32, ptr %13, align 4
  %45 = call ptr @llvm_emit_array_gep_raw(ptr noundef %40, ptr noundef %41, ptr noundef %42, i32 noundef %43, i32 noundef %44, ptr noundef %16)
  store ptr %45, ptr %17, align 8
  %46 = load ptr, ptr %9, align 8
  %47 = load ptr, ptr %10, align 8
  %48 = getelementptr inbounds %struct.Type_, ptr %47, i32 0, i32 7
  %49 = getelementptr inbounds %struct.TypeArray, ptr %48, i32 0, i32 0
  %50 = load ptr, ptr %49, align 8
  %51 = load ptr, ptr %17, align 8
  %52 = load ptr, ptr %12, align 8
  %53 = load i32, ptr %16, align 4
  call void @llvm_expand_from_args(ptr noundef %46, ptr noundef %50, ptr noundef %51, ptr noundef %52, i32 noundef %53)
  br label %54

54:                                               ; preds = %39
  %55 = load i32, ptr %15, align 4
  %56 = add i32 %55, 1
  store i32 %56, ptr %15, align 4
  br label %32, !llvm.loop !14

57:                                               ; preds = %32
  br label %122

58:                                               ; preds = %5
  %59 = load ptr, ptr %9, align 8
  %60 = load ptr, ptr %10, align 8
  %61 = call ptr @llvm_get_type(ptr noundef %59, ptr noundef %60)
  store ptr %61, ptr %18, align 8
  %62 = load ptr, ptr %10, align 8
  %63 = getelementptr inbounds %struct.Type_, ptr %62, i32 0, i32 7
  %64 = load ptr, ptr %63, align 8
  %65 = getelementptr inbounds %struct.Decl_, ptr %64, i32 0, i32 11
  %66 = getelementptr inbounds %struct.anon.2, ptr %65, i32 0, i32 2
  %67 = getelementptr inbounds %struct.StructDecl, ptr %66, i32 0, i32 1
  %68 = load ptr, ptr %67, align 8
  store ptr %68, ptr %19, align 8
  store i32 0, ptr %20, align 4
  %69 = load ptr, ptr %19, align 8
  store ptr %69, ptr %7, align 8
  %70 = load ptr, ptr %7, align 8
  %71 = icmp ne ptr %70, null
  br i1 %71, label %73, label %72

72:                                               ; preds = %58
  store i32 0, ptr %6, align 4
  br label %78

73:                                               ; preds = %58
  %74 = load ptr, ptr %7, align 8
  store ptr %74, ptr %8, align 8
  %75 = load ptr, ptr %8, align 8
  %76 = getelementptr inbounds %struct.VHeader_, ptr %75, i64 -1
  %77 = load i32, ptr %76, align 4
  store i32 %77, ptr %6, align 4
  br label %78

78:                                               ; preds = %73, %72
  %79 = load i32, ptr %6, align 4
  store i32 %79, ptr %21, align 4
  br label %80

80:                                               ; preds = %102, %78
  %81 = load i32, ptr %20, align 4
  %82 = load i32, ptr %21, align 4
  %83 = icmp ult i32 %81, %82
  br i1 %83, label %84, label %105

84:                                               ; preds = %80
  %85 = load ptr, ptr %9, align 8
  %86 = load ptr, ptr %11, align 8
  %87 = load ptr, ptr %18, align 8
  %88 = load i32, ptr %20, align 4
  %89 = load i32, ptr %13, align 4
  %90 = call ptr @llvm_emit_struct_gep_raw(ptr noundef %85, ptr noundef %86, ptr noundef %87, i32 noundef %88, i32 noundef %89, ptr noundef %22)
  store ptr %90, ptr %23, align 8
  %91 = load ptr, ptr %9, align 8
  %92 = load ptr, ptr %19, align 8
  %93 = load i32, ptr %20, align 4
  %94 = zext i32 %93 to i64
  %95 = getelementptr inbounds ptr, ptr %92, i64 %94
  %96 = load ptr, ptr %95, align 8
  %97 = getelementptr inbounds %struct.Decl_, ptr %96, i32 0, i32 10
  %98 = load ptr, ptr %97, align 8
  %99 = load ptr, ptr %23, align 8
  %100 = load ptr, ptr %12, align 8
  %101 = load i32, ptr %22, align 4
  call void @llvm_expand_from_args(ptr noundef %91, ptr noundef %98, ptr noundef %99, ptr noundef %100, i32 noundef %101)
  br label %102

102:                                              ; preds = %84
  %103 = load i32, ptr %20, align 4
  %104 = add i32 %103, 1
  store i32 %104, ptr %20, align 4
  br label %80, !llvm.loop !15

105:                                              ; preds = %80
  br label %122

106:                                              ; preds = %5
  %107 = load ptr, ptr %10, align 8
  %108 = call ptr @type_find_largest_union_element(ptr noundef %107)
  store ptr %108, ptr %24, align 8
  %109 = load ptr, ptr %9, align 8
  %110 = load ptr, ptr %24, align 8
  %111 = load ptr, ptr %11, align 8
  %112 = load ptr, ptr %12, align 8
  %113 = load i32, ptr %13, align 4
  call void @llvm_expand_from_args(ptr noundef %109, ptr noundef %110, ptr noundef %111, ptr noundef %112, i32 noundef %113)
  br label %122

114:                                              ; preds = %5
  %115 = load ptr, ptr %9, align 8
  %116 = load ptr, ptr %11, align 8
  %117 = load ptr, ptr %9, align 8
  %118 = load ptr, ptr %12, align 8
  %119 = call ptr @llvm_get_next_param(ptr noundef %117, ptr noundef %118)
  %120 = load i32, ptr %13, align 4
  %121 = call ptr @llvm_store_to_ptr_raw_aligned(ptr noundef %115, ptr noundef %116, ptr noundef %119, i32 noundef %120)
  br label %122

122:                                              ; preds = %114, %106, %105, %57
  ret void
}