; Function Attrs: nounwind uwtable
define internal fastcc void @llvm_expand_from_args(ptr noundef %0, ptr noundef %1, ptr noundef %2, ptr noundef %3, i32 noundef %4) unnamed_addr #0 {
  %6 = alloca i32, align 4
  %7 = alloca i32, align 4
  br label %tailrecurse

tailrecurse:                                      ; preds = %37, %5
  %.tr49 = phi ptr [ %1, %5 ], [ %38, %37 ]
  %8 = load i32, ptr %.tr49, align 8
  switch i32 %8, label %39 [
    i32 33, label %9
    i32 26, label %21
    i32 27, label %37
  ]

9:                                                ; preds = %tailrecurse
  %10 = tail call ptr @llvm_get_type(ptr noundef %0, ptr noundef nonnull %.tr49) #7
  %11 = getelementptr inbounds i8, ptr %.tr49, i64 64
  %12 = load i32, ptr %11, align 8
  %.not60 = icmp eq i32 %12, 0
  br i1 %.not60, label %.loopexit, label %.lr.ph58

.lr.ph58:                                         ; preds = %9
  %13 = getelementptr inbounds i8, ptr %.tr49, i64 56
  br label %14

14:                                               ; preds = %.lr.ph58, %14
  %.04657 = phi i32 [ 0, %.lr.ph58 ], [ %18, %14 ]
  %15 = call ptr @llvm_emit_array_gep_raw(ptr noundef %0, ptr noundef %2, ptr noundef %10, i32 noundef %.04657, i32 noundef %4, ptr noundef nonnull %6) #7
  %16 = load ptr, ptr %13, align 8
  %17 = load i32, ptr %6, align 4
  call fastcc void @llvm_expand_from_args(ptr noundef %0, ptr noundef %16, ptr noundef %15, ptr noundef %3, i32 noundef %17)
  %18 = add nuw i32 %.04657, 1
  %19 = load i32, ptr %11, align 8
  %20 = icmp ult i32 %18, %19
  br i1 %20, label %14, label %.loopexit, !llvm.loop !14

21:                                               ; preds = %tailrecurse
  %22 = tail call ptr @llvm_get_type(ptr noundef %0, ptr noundef nonnull %.tr49) #7
  %23 = getelementptr inbounds i8, ptr %.tr49, i64 56
  %24 = load ptr, ptr %23, align 8
  %25 = getelementptr inbounds i8, ptr %24, i64 104
  %26 = load ptr, ptr %25, align 8
  %.not = icmp eq ptr %26, null
  br i1 %.not, label %.loopexit, label %27

27:                                               ; preds = %21
  %28 = getelementptr inbounds i8, ptr %26, i64 -8
  %29 = load i32, ptr %28, align 4
  %.not59 = icmp eq i32 %29, 0
  br i1 %.not59, label %.loopexit, label %.lr.ph.preheader

.lr.ph.preheader:                                 ; preds = %27
  %wide.trip.count = zext i32 %29 to i64
  br label %.lr.ph

.lr.ph:                                           ; preds = %.lr.ph.preheader, %.lr.ph
  %indvars.iv = phi i64 [ 0, %.lr.ph.preheader ], [ %indvars.iv.next, %.lr.ph ]
  %30 = trunc nuw i64 %indvars.iv to i32
  %31 = call ptr @llvm_emit_struct_gep_raw(ptr noundef %0, ptr noundef %2, ptr noundef %22, i32 noundef %30, i32 noundef %4, ptr noundef nonnull %7) #7
  %32 = getelementptr inbounds ptr, ptr %26, i64 %indvars.iv
  %33 = load ptr, ptr %32, align 8
  %34 = getelementptr inbounds i8, ptr %33, i64 72
  %35 = load ptr, ptr %34, align 8
  %36 = load i32, ptr %7, align 4
  call fastcc void @llvm_expand_from_args(ptr noundef %0, ptr noundef %35, ptr noundef %31, ptr noundef %3, i32 noundef %36)
  %indvars.iv.next = add nuw nsw i64 %indvars.iv, 1
  %exitcond.not = icmp eq i64 %indvars.iv.next, %wide.trip.count
  br i1 %exitcond.not, label %.loopexit, label %.lr.ph, !llvm.loop !15

37:                                               ; preds = %tailrecurse
  %38 = tail call ptr @type_find_largest_union_element(ptr noundef nonnull %.tr49) #7
  br label %tailrecurse

39:                                               ; preds = %tailrecurse
  %40 = getelementptr inbounds i8, ptr %0, i64 48
  %41 = load ptr, ptr %40, align 8
  %42 = load i32, ptr %3, align 4
  %43 = add i32 %42, 1
  store i32 %43, ptr %3, align 4
  %44 = tail call ptr @LLVMGetParam(ptr noundef %41, i32 noundef %42) #7
  %45 = tail call ptr @llvm_store_to_ptr_raw_aligned(ptr noundef %0, ptr noundef %2, ptr noundef %44, i32 noundef %4) #7
  br label %.loopexit

.loopexit:                                        ; preds = %.lr.ph, %14, %21, %27, %9, %39
  ret void
}